(iimpl.rg_args
run_args
p0
(dp1
S'rg'
p2
(iimpl.rg_args
rg_args
p3
(dp4
S'log_level'
p5
I40
sS'root'
p6
S'/data/x/tools/pkgs/rigger-ng/0.1.3.112/src'
p7
sS'user'
p8
NsS'conf'
p9
S'/home/zuowenjian/devspace/team/_rg/conf.yaml'
p10
sS'save'
p11
I01
sS'os'
p12
NsbsS'dev'
p13
(iimpl.rg_args
dev_args
p14
(dp15
S'message'
p16
S''
p17
sg9
S'/home/zuowenjian/devspace/team/_rg/dev.yaml'
p18
sS'cmds'
p19
(lp20
sbsS'prj'
p21
(iimpl.rg_args
prj_args
p22
(dp23
S'sys'
p24
Nsg9
S'/home/zuowenjian/devspace/team/_rg/run.yaml'
p25
sS'env'
p26
Nsg19
(lp27
S'rc'
p28
asbsb.